target datalayout = "e-m:e-p270:32:32-p271:32:32-p272:64:64-i64:64-i128:128-f80:128-n8:16:32:64-S128"
target triple = "x86_64-unknown-linux-gnu"

%"struct.node::AssertionInfo" = type { ptr, ptr, ptr }
%"class.v8::IndirectHandleBase" = type { ptr }
%"class.node::MemoryRetainer" = type { ptr }
%"class.v8::OutputStream" = type { ptr }
%"class.std::unique_ptr.325" = type { %"struct.std::__uniq_ptr_data.326" }
%"struct.std::__uniq_ptr_data.326" = type { %"class.std::__uniq_ptr_impl.327" }
%"class.std::__uniq_ptr_impl.327" = type { %"class.std::tuple.328" }
%"class.std::tuple.328" = type { %"struct.std::_Tuple_impl.329" }
%"struct.std::_Tuple_impl.329" = type { %"struct.std::_Head_base.332" }
%"struct.std::_Head_base.332" = type { ptr }
%"class.node::BaseObject" = type { %"class.node::MemoryRetainer", %"class.v8::Global.337", ptr, ptr }
%"class.v8::Global.337" = type { %"class.v8::PersistentBase.338" }
%"class.v8::PersistentBase.338" = type { %"class.v8::IndirectHandleBase" }
%"class.node::heap::(anonymous namespace)::HeapSnapshotStream" = type { %"class.node::AsyncWrap", %"class.node::StreamBase", %"class.v8::OutputStream", %"class.std::unique_ptr.325" }
%"class.node::AsyncWrap" = type { %"class.node::BaseObject", i32, i8, double, double }
%"class.node::StreamBase" = type { %"class.node::StreamResource", ptr, %"class.node::EmitToJSStreamListener" }
%"class.node::StreamResource" = type { ptr, ptr, i64, i64 }
%"class.node::EmitToJSStreamListener" = type { %"class.node::ReportWritesToJSStreamListener" }
%"class.node::ReportWritesToJSStreamListener" = type { %"class.node::StreamListener" }
%"class.node::StreamListener" = type { ptr, ptr, ptr }

@_ZZN4node4heap12_GLOBAL__N_118HeapSnapshotStream9ReadStartEvE4args = internal constant %"struct.node::AssertionInfo" { ptr @.str.47, ptr @.str.48, ptr @.str.49 }, align 8

; Function Attrs: mustprogress nounwind uwtable
define linkonce_odr dso_local noundef nonnull align 8 dereferenceable(8) ptr @_ZNSt10_Head_baseILm0EPKN2v812HeapSnapshotELb0EE7_M_headERKS4_(ptr noundef nonnull align 8 dereferenceable(8) %__b) #4 comdat align 2 {
entry:
  %__b.addr = alloca ptr, align 8
  store ptr %__b, ptr %__b.addr, align 8
  %0 = load ptr, ptr %__b.addr, align 8
  %_M_head_impl = getelementptr inbounds %"struct.std::_Head_base.332", ptr %0, i32 0, i32 0
  ret ptr %_M_head_impl
}

; Function Attrs: mustprogress nounwind uwtable
define linkonce_odr dso_local noundef nonnull align 8 dereferenceable(8) ptr @_ZNSt11_Tuple_implILm0EJPKN2v812HeapSnapshotEN4node15FunctionDeleterIS2_XadL_ZNS4_4heap18DeleteHeapSnapshotES3_EEEEEE7_M_headERKS8_(ptr noundef nonnull align 8 dereferenceable(8) %__t) #4 comdat align 2 {
entry:
  %__t.addr = alloca ptr, align 8
  store ptr %__t, ptr %__t.addr, align 8
  %0 = load ptr, ptr %__t.addr, align 8
  %call = call noundef nonnull align 8 dereferenceable(8) ptr @_ZNSt10_Head_baseILm0EPKN2v812HeapSnapshotELb0EE7_M_headERKS4_(ptr noundef nonnull align 8 dereferenceable(8) %0) #3
  ret ptr %call
}

; Function Attrs: mustprogress nounwind uwtable
define linkonce_odr dso_local noundef nonnull align 8 dereferenceable(8) ptr @_ZSt12__get_helperILm0EPKN2v812HeapSnapshotEJN4node15FunctionDeleterIS2_XadL_ZNS4_4heap18DeleteHeapSnapshotES3_EEEEEERKT0_RKSt11_Tuple_implIXT_EJS8_DpT1_EE(ptr noundef nonnull align 8 dereferenceable(8) %__t) #4 comdat {
entry:
  %__t.addr = alloca ptr, align 8
  store ptr %__t, ptr %__t.addr, align 8
  %0 = load ptr, ptr %__t.addr, align 8
  %call = call noundef nonnull align 8 dereferenceable(8) ptr @_ZNSt11_Tuple_implILm0EJPKN2v812HeapSnapshotEN4node15FunctionDeleterIS2_XadL_ZNS4_4heap18DeleteHeapSnapshotES3_EEEEEE7_M_headERKS8_(ptr noundef nonnull align 8 dereferenceable(8) %0) #3
  ret ptr %call
}

; Function Attrs: mustprogress nounwind uwtable
define linkonce_odr dso_local noundef nonnull align 8 dereferenceable(8) ptr @_ZSt3getILm0EJPKN2v812HeapSnapshotEN4node15FunctionDeleterIS2_XadL_ZNS4_4heap18DeleteHeapSnapshotES3_EEEEEERKNSt13tuple_elementIXT_ESt5tupleIJDpT0_EEE4typeERKSC_(ptr noundef nonnull align 8 dereferenceable(8) %__t) #4 comdat {
entry:
  %__t.addr = alloca ptr, align 8
  store ptr %__t, ptr %__t.addr, align 8
  %0 = load ptr, ptr %__t.addr, align 8
  %call = call noundef nonnull align 8 dereferenceable(8) ptr @_ZSt12__get_helperILm0EPKN2v812HeapSnapshotEJN4node15FunctionDeleterIS2_XadL_ZNS4_4heap18DeleteHeapSnapshotES3_EEEEEERKT0_RKSt11_Tuple_implIXT_EJS8_DpT1_EE(ptr noundef nonnull align 8 dereferenceable(8) %0) #3
  ret ptr %call
}

; Function Attrs: mustprogress nounwind uwtable
define linkonce_odr dso_local noundef ptr @_ZNKSt15__uniq_ptr_implIKN2v812HeapSnapshotEN4node15FunctionDeleterIS2_XadL_ZNS3_4heap18DeleteHeapSnapshotEPS2_EEEEE6_M_ptrEv(ptr noundef nonnull align 8 dereferenceable(8) %this) #4 comdat align 2 {
entry:
  %this.addr = alloca ptr, align 8
  store ptr %this, ptr %this.addr, align 8
  %this1 = load ptr, ptr %this.addr, align 8
  %_M_t = getelementptr inbounds %"class.std::__uniq_ptr_impl.327", ptr %this1, i32 0, i32 0
  %call = call noundef nonnull align 8 dereferenceable(8) ptr @_ZSt3getILm0EJPKN2v812HeapSnapshotEN4node15FunctionDeleterIS2_XadL_ZNS4_4heap18DeleteHeapSnapshotES3_EEEEEERKNSt13tuple_elementIXT_ESt5tupleIJDpT0_EEE4typeERKSC_(ptr noundef nonnull align 8 dereferenceable(8) %_M_t) #3
  %0 = load ptr, ptr %call, align 8
  ret ptr %0
}

; Function Attrs: mustprogress nounwind uwtable
define linkonce_odr dso_local noundef ptr @_ZNKSt10unique_ptrIKN2v812HeapSnapshotEN4node15FunctionDeleterIS2_XadL_ZNS3_4heap18DeleteHeapSnapshotEPS2_EEEEE3getEv(ptr noundef nonnull align 8 dereferenceable(8) %this) #4 comdat align 2 {
entry:
  %this.addr = alloca ptr, align 8
  store ptr %this, ptr %this.addr, align 8
  %this1 = load ptr, ptr %this.addr, align 8
  %_M_t = getelementptr inbounds %"class.std::unique_ptr.325", ptr %this1, i32 0, i32 0
  %call = call noundef ptr @_ZNKSt15__uniq_ptr_implIKN2v812HeapSnapshotEN4node15FunctionDeleterIS2_XadL_ZNS3_4heap18DeleteHeapSnapshotEPS2_EEEEE6_M_ptrEv(ptr noundef nonnull align 8 dereferenceable(8) %_M_t) #3
  ret ptr %call
}

; Function Attrs: mustprogress nounwind uwtable
define linkonce_odr dso_local noundef zeroext i1 @_ZNKSt10unique_ptrIKN2v812HeapSnapshotEN4node15FunctionDeleterIS2_XadL_ZNS3_4heap18DeleteHeapSnapshotEPS2_EEEEEcvbEv(ptr noundef nonnull align 8 dereferenceable(8) %this) #4 comdat align 2 {
entry:
  %this.addr = alloca ptr, align 8
  store ptr %this, ptr %this.addr, align 8
  %this1 = load ptr, ptr %this.addr, align 8
  %call = call noundef ptr @_ZNKSt10unique_ptrIKN2v812HeapSnapshotEN4node15FunctionDeleterIS2_XadL_ZNS3_4heap18DeleteHeapSnapshotEPS2_EEEEE3getEv(ptr noundef nonnull align 8 dereferenceable(8) %this1) #3
  %cmp = icmp eq ptr %call, null
  %cond = select i1 %cmp, i1 false, i1 true
  ret i1 %cond
}

; Function Attrs: mustprogress nounwind uwtable
define linkonce_odr dso_local noundef ptr @_ZNKSt10unique_ptrIKN2v812HeapSnapshotEN4node15FunctionDeleterIS2_XadL_ZNS3_4heap18DeleteHeapSnapshotEPS2_EEEEEptEv(ptr noundef nonnull align 8 dereferenceable(8) %this) #4 comdat align 2 {
entry:
  %this.addr = alloca ptr, align 8
  store ptr %this, ptr %this.addr, align 8
  %this1 = load ptr, ptr %this.addr, align 8
  %call = call noundef ptr @_ZNKSt10unique_ptrIKN2v812HeapSnapshotEN4node15FunctionDeleterIS2_XadL_ZNS3_4heap18DeleteHeapSnapshotEPS2_EEEEE3getEv(ptr noundef nonnull align 8 dereferenceable(8) %this1) #3
  ret ptr %call
}

; Function Attrs: mustprogress nounwind uwtable
define linkonce_odr dso_local noundef zeroext i1 @_ZStneIKN2v812HeapSnapshotEN4node15FunctionDeleterIS2_XadL_ZNS3_4heap18DeleteHeapSnapshotEPS2_EEEEEbRKSt10unique_ptrIT_T0_EDn(ptr noundef nonnull align 8 dereferenceable(8) %__x, ptr %0) #4 comdat {
entry:
  %__x.addr = alloca ptr, align 8
  %.addr = alloca ptr, align 8
  store ptr %__x, ptr %__x.addr, align 8
  store ptr %0, ptr %.addr, align 8
  %1 = load ptr, ptr %__x.addr, align 8
  %call = call noundef zeroext i1 @_ZNKSt10unique_ptrIKN2v812HeapSnapshotEN4node15FunctionDeleterIS2_XadL_ZNS3_4heap18DeleteHeapSnapshotEPS2_EEEEEcvbEv(ptr noundef nonnull align 8 dereferenceable(8) %1) #3
  ret i1 %call
}

; Function Attrs: mustprogress nounwind uwtable
define internal noundef i32 @_ZN4node4heap12_GLOBAL__N_118HeapSnapshotStream9ReadStartEv(ptr noundef nonnull align 8 dereferenceable(136) %this) unnamed_addr #4 align 2 {
entry:
  %this.addr = alloca ptr, align 8
  store ptr %this, ptr %this.addr, align 8
  %this1 = load ptr, ptr %this.addr, align 8
  br label %do.body

do.body:                                          ; preds = %entry
  %snapshot_ = getelementptr inbounds %"class.node::heap::(anonymous namespace)::HeapSnapshotStream", ptr %this1, i32 0, i32 3
  %call = call noundef zeroext i1 @_ZStneIKN2v812HeapSnapshotEN4node15FunctionDeleterIS2_XadL_ZNS3_4heap18DeleteHeapSnapshotEPS2_EEEEEbRKSt10unique_ptrIT_T0_EDn(ptr noundef nonnull align 8 dereferenceable(8) %snapshot_, ptr null) #3
  %lnot = xor i1 %call, true
  %lnot2 = xor i1 %lnot, true
  %lnot3 = xor i1 %lnot2, true
  br i1 %lnot3, label %if.then, label %if.end

if.then:                                          ; preds = %do.body
  br label %do.body4

do.body4:                                         ; preds = %if.then
  call void @_ZN4node6AssertERKNS_13AssertionInfoE(ptr noundef nonnull align 8 dereferenceable(24) @_ZZN4node4heap12_GLOBAL__N_118HeapSnapshotStream9ReadStartEvE4args)
  call void @abort() #15
  unreachable

do.end:                                           ; No predecessors!
  br label %if.end

if.end:                                           ; preds = %do.end, %do.body
  br label %do.end5

do.end5:                                          ; preds = %if.end
  %snapshot_6 = getelementptr inbounds %"class.node::heap::(anonymous namespace)::HeapSnapshotStream", ptr %this1, i32 0, i32 3
  %call7 = call noundef ptr @_ZNKSt10unique_ptrIKN2v812HeapSnapshotEN4node15FunctionDeleterIS2_XadL_ZNS3_4heap18DeleteHeapSnapshotEPS2_EEEEEptEv(ptr noundef nonnull align 8 dereferenceable(8) %snapshot_6) #3
  %add.ptr = getelementptr inbounds i8, ptr %this1, i64 120
  call void @_ZNK2v812HeapSnapshot9SerializeEPNS_12OutputStreamENS0_19SerializationFormatE(ptr noundef nonnull align 1 dereferenceable(1) %call7, ptr noundef %add.ptr, i32 noundef 0)
  ret i32 0
}

; Function Attrs: nounwind uwtable
define internal noundef i32 @_ZThn56_N4node4heap12_GLOBAL__N_118HeapSnapshotStream9ReadStartEv(ptr noundef %this) unnamed_addr #0 align 2 {
entry:
  %this.addr = alloca ptr, align 8
  store ptr %this, ptr %this.addr, align 8
  %this1 = load ptr, ptr %this.addr, align 8
  %0 = getelementptr inbounds i8, ptr %this1, i64 -56
  %call = tail call noundef i32 @_ZN4node4heap12_GLOBAL__N_118HeapSnapshotStream9ReadStartEv(ptr noundef nonnull align 8 dereferenceable(136) %0)
  ret i32 %call
}