; Function Attrs: nounwind uwtable
define internal noundef i32 @_ZThn56_N4node4heap12_GLOBAL__N_118HeapSnapshotStream9ReadStartEv(ptr noundef %this) unnamed_addr #16 align 2 {
entry:
  %snapshot_.i = getelementptr inbounds i8, ptr %this, i64 72
  %0 = load ptr, ptr %snapshot_.i, align 8
  %cmp.i.i.not.i = icmp eq ptr %0, null
  br i1 %cmp.i.i.not.i, label %do.body4.i, label %_ZN4node4heap12_GLOBAL__N_118HeapSnapshotStream9ReadStartEv.exit

do.body4.i:                                       ; preds = %entry
  tail call void @_ZN4node6AssertERKNS_13AssertionInfoE(ptr noundef nonnull align 8 dereferenceable(24) @_ZZN4node4heap12_GLOBAL__N_118HeapSnapshotStream9ReadStartEvE4args) #22
  tail call void @abort() #26
  unreachable

_ZN4node4heap12_GLOBAL__N_118HeapSnapshotStream9ReadStartEv.exit: ; preds = %entry
  %add.ptr.i = getelementptr inbounds i8, ptr %this, i64 64
  tail call void @_ZNK2v812HeapSnapshot9SerializeEPNS_12OutputStreamENS0_19SerializationFormatE(ptr noundef nonnull align 1 dereferenceable(1) %0, ptr noundef nonnull %add.ptr.i, i32 noundef 0) #22
  ret i32 0
}